; ModuleID = 'source-C-CXX/27/655.c'
source_filename = "source-C-CXX/27/655.c"
target datalayout = "e-m:e-p270:32:32-p271:32:32-p272:64:64-i64:64-f80:128-n8:16:32:64-S128"
target triple = "x86_64-pc-linux-gnu"

@.str = private unnamed_addr constant [3 x i8] c"%d\00", align 1
@.str.1 = private unnamed_addr constant [4 x i8] c",%d\00", align 1

; Function Attrs: nounwind sspstrong uwtable
define dso_local void @main() local_unnamed_addr #0 {
  %1 = alloca [301 x i32], align 16
  %2 = alloca [10000 x i8], align 16
  %3 = bitcast [301 x i32]* %1 to i8*
  call void @llvm.lifetime.start.p0i8(i64 1204, i8* nonnull %3) #5
  call void @llvm.memset.p0i8.i64(i8* noundef nonnull align 16 dereferenceable(1204) %3, i8 0, i64 1204, i1 false)
  %4 = getelementptr inbounds [10000 x i8], [10000 x i8]* %2, i64 0, i64 0
  call void @llvm.lifetime.start.p0i8(i64 10000, i8* nonnull %4) #5
  %5 = call i32 (i8*, ...) bitcast (i32 (...)* @gets to i32 (i8*, ...)*)(i8* nonnull %4) #5
  %6 = load i8, i8* %4, align 16, !tbaa !5
  %7 = icmp eq i8 %6, 0
  br i1 %7, label %8, label %10

8:                                                ; preds = %0
  %9 = call i32 (i8*, ...) @printf(i8* nonnull dereferenceable(1) getelementptr inbounds ([3 x i8], [3 x i8]* @.str, i64 0, i64 0), i32 0)
  br label %47

10:                                               ; preds = %0, %26
  %11 = phi i64 [ %28, %26 ], [ 0, %0 ]
  %12 = phi i8 [ %30, %26 ], [ %6, %0 ]
  %13 = phi i32 [ %20, %26 ], [ 0, %0 ]
  %14 = phi i32 [ %27, %26 ], [ 1, %0 ]
  %15 = icmp eq i8 %12, 32
  %16 = icmp eq i32 %14, 1
  %17 = select i1 %15, i1 %16, i1 false
  %18 = select i1 %17, i32 0, i32 %14
  %19 = zext i1 %17 to i32
  %20 = add nuw nsw i32 %13, %19
  br i1 %15, label %26, label %21

21:                                               ; preds = %10
  %22 = zext i32 %20 to i64
  %23 = getelementptr inbounds [301 x i32], [301 x i32]* %1, i64 0, i64 %22
  %24 = load i32, i32* %23, align 4, !tbaa !8
  %25 = add nsw i32 %24, 1
  store i32 %25, i32* %23, align 4, !tbaa !8
  br label %26

26:                                               ; preds = %10, %21
  %27 = phi i32 [ 1, %21 ], [ %18, %10 ]
  %28 = add nuw i64 %11, 1
  %29 = getelementptr inbounds [10000 x i8], [10000 x i8]* %2, i64 0, i64 %28
  %30 = load i8, i8* %29, align 1, !tbaa !5
  %31 = icmp eq i8 %30, 0
  br i1 %31, label %32, label %10, !llvm.loop !10

32:                                               ; preds = %26
  %33 = getelementptr inbounds [301 x i32], [301 x i32]* %1, i64 0, i64 0
  %34 = load i32, i32* %33, align 16, !tbaa !8
  %35 = call i32 (i8*, ...) @printf(i8* nonnull dereferenceable(1) getelementptr inbounds ([3 x i8], [3 x i8]* @.str, i64 0, i64 0), i32 %34)
  %36 = icmp eq i32 %20, 0
  br i1 %36, label %47, label %37

37:                                               ; preds = %32
  %38 = add nuw i32 %20, 1
  %39 = zext i32 %38 to i64
  br label %40

40:                                               ; preds = %37, %40
  %41 = phi i64 [ 1, %37 ], [ %45, %40 ]
  %42 = getelementptr inbounds [301 x i32], [301 x i32]* %1, i64 0, i64 %41
  %43 = load i32, i32* %42, align 4, !tbaa !8
  %44 = call i32 (i8*, ...) @printf(i8* nonnull dereferenceable(1) getelementptr inbounds ([4 x i8], [4 x i8]* @.str.1, i64 0, i64 0), i32 %43)
  %45 = add nuw nsw i64 %41, 1
  %46 = icmp eq i64 %45, %39
  br i1 %46, label %47, label %40, !llvm.loop !12

47:                                               ; preds = %40, %8, %32
  call void @llvm.lifetime.end.p0i8(i64 10000, i8* nonnull %4) #5
  call void @llvm.lifetime.end.p0i8(i64 1204, i8* nonnull %3) #5
  ret void
}

; Function Attrs: argmemonly mustprogress nofree nosync nounwind willreturn
declare void @llvm.lifetime.start.p0i8(i64 immarg, i8* nocapture) #1

; Function Attrs: argmemonly mustprogress nofree nounwind willreturn writeonly
declare void @llvm.memset.p0i8.i64(i8* nocapture writeonly, i8, i64, i1 immarg) #2

declare i32 @gets(...) local_unnamed_addr #3

; Function Attrs: nofree nounwind
declare noundef i32 @printf(i8* nocapture noundef readonly, ...) local_unnamed_addr #4

; Function Attrs: argmemonly mustprogress nofree nosync nounwind willreturn
declare void @llvm.lifetime.end.p0i8(i64 immarg, i8* nocapture) #1


!llvm.module.flags = !{!0, !1, !2, !3}
!llvm.ident = !{!4}

!0 = !{i32 1, !"wchar_size", i32 4}
!1 = !{i32 7, !"PIC Level", i32 2}
!2 = !{i32 7, !"PIE Level", i32 2}
!3 = !{i32 7, !"uwtable", i32 1}
!4 = !{!"clang version 13.0.0"}
!5 = !{!6, !6, i64 0}
!6 = !{!"omnipotent char", !7, i64 0}
!7 = !{!"Simple C/C++ TBAA"}
!8 = !{!9, !9, i64 0}
!9 = !{!"int", !6, i64 0}
!10 = distinct !{!10, !11}
!11 = !{!"llvm.loop.mustprogress"}
!12 = distinct !{!12, !11}
